#include <math.h>
#include <stdio.h>
#include <stdlib.h>
#include <string.h>

int main(int argc, char* argv[])
{
	int x[100000];
	int i,j,n,s,y,p;
	int b[100000];
	scanf("%d",&n);
	for(i=0;i<n;i++)
	{
		scanf("%d %d %d",&x[i],&y,&p);
		b[i]=y+p;
	}
	int t;
	for(i=0;i<3;i++)
	{
		for(j=i+1;j<n;j++)
		{
			if(b[j]>b[i])
			{
				s=x[i];
				x[i]=x[j];
				x[j]=s;
				t=b[i];
				b[i]=b[j];
				b[j]=t;
				
			}

		}

	}
	for(i=0;i<3;i++)
	{
	printf("%d %d\n",x[i],b[i]);
	}
	return 0;
}
